(dp0
S'movie'
p1
(dp2
S"Pirates of the Caribbean: Dead Man's Chest\n"
p3
(lp4
S'http://www.imdb.com/title/tt0383574/'
p5
aS"http://www.ask.com/wiki/Pirates_of_the_Caribbean:_Dead_Man's_Chest"
p6
aS'http://www.rottentomatoes.com/m/pirates_of_the_caribbean_dead_mans_chest/'
p7
aS'http://www.ask.com/allabout?q=Pirates+of+the+Caribbean%3A+Dead+Man%27s+Chest&qsrc=416'
p8
aS'http://www.amazon.com/dp/B00005JP0F/ref%3Dasc_df_B00005JP0F2108488/%3Ftag%3Daskcom05el-20%26creative%3D394997%26creativeASIN%3DB00005JP0F%26linkCode%3Dasn'
p9
aS'http://www.imdb.com/title/tt0383574/'
p10
aS"http://www.ask.com/wiki/Pirates_of_the_Caribbean:_Dead_Man's_Chest"
p11
aS'http://www.rottentomatoes.com/m/pirates_of_the_caribbean_dead_mans_chest/'
p12
aS'http://www.ask.com/allabout?q=Pirates+of+the+Caribbean%3A+Dead+Man%27s+Chest&qsrc=416'
p13
aS'http://www.amazon.com/dp/B00005JP0F/ref%3Dasc_df_B00005JP0F2108488/%3Ftag%3Daskcom05el-20%26creative%3D394997%26creativeASIN%3DB00005JP0F%26linkCode%3Dasn'
p14
asS'Toy Story 3\n'
p15
(lp16
S'http://disney.go.com/toystory/'
p17
aS'http://www.rottentomatoes.com/m/toy_story_3/'
p18
aS'http://www.ask.com/wiki/Toy_Story_3'
p19
aS'http://www.imdb.com/title/tt0435761/'
p20
aS'http://www.ask.com/allabout?q=Toy+Story+3&qsrc=416'
p21
aS'http://www.moviefone.com/movie/toy-story-3/22984/main'
p22
aS'http://disney.go.com/toystory/'
p23
aS'http://www.rottentomatoes.com/m/toy_story_3/'
p24
aS'http://www.ask.com/wiki/Toy_Story_3'
p25
aS'http://www.imdb.com/title/tt0435761/'
p26
aS'http://www.ask.com/allabout?q=Toy+Story+3&qsrc=416'
p27
aS'http://www.moviefone.com/movie/toy-story-3/22984/main'
p28
asS'The Dark Knight Rises\n'
p29
(lp30
S'http://www.thedarkknightrises.com/'
p31
aS'http://www.ask.com/wiki/The_Dark_Knight_Rises'
p32
aS'http://www.imdb.com/title/tt1345836/'
p33
aS'http://www.moviefone.com/movie/the-dark-knight-rises/10036961/main'
p34
aS'http://www.ask.com/allabout?q=The+Dark+Knight+Rises&qsrc=416'
p35
aS'http://www.fandango.com/thedarkknightrises_135740/movieoverview'
p36
aS'http://movies.yahoo.com/movie/the-dark-knight-rises/trailers/'
p37
aS'http://www.movieweb.com/movie/the-dark-knight-rises'
p38
aS'http://www.empireonline.com/reviews/review.asp?FID=137000'
p39
aS'http://www.thedarkknightrises.com/'
p40
aS'http://www.ask.com/wiki/The_Dark_Knight_Rises'
p41
aS'http://www.imdb.com/title/tt1345836/'
p42
aS'http://www.moviefone.com/movie/the-dark-knight-rises/10036961/main'
p43
aS'http://www.ask.com/allabout?q=The+Dark+Knight+Rises&qsrc=416'
p44
aS'http://www.fandango.com/thedarkknightrises_135740/movieoverview'
p45
aS'http://movies.yahoo.com/movie/the-dark-knight-rises/trailers/'
p46
aS'http://www.movieweb.com/movie/the-dark-knight-rises'
p47
aS'http://www.empireonline.com/reviews/review.asp?FID=137000'
p48
asS'Finding Nemo\n'
p49
(lp50
S'http://disney.go.com/finding-nemo/home/'
p51
aS'http://www.imdb.com/title/tt0266543/'
p52
aS'http://www.amazon.com/Finding-Five-Disc-Ultimate-Collectors-Edition/dp/B00867GHS8'
p53
aS'http://www.ask.com/wiki/Finding_Nemo'
p54
aS'http://www.solarmovie.eu/watch-finding-nemo-2003.html'
p55
aS'http://www.rottentomatoes.com/m/finding_nemo_3d/'
p56
aS'http://disney.go.com/finding-nemo/home/'
p57
aS'http://www.imdb.com/title/tt0266543/'
p58
aS'http://www.amazon.com/Finding-Five-Disc-Ultimate-Collectors-Edition/dp/B00867GHS8'
p59
aS'http://www.ask.com/wiki/Finding_Nemo'
p60
aS'http://www.solarmovie.eu/watch-finding-nemo-2003.html'
p61
aS'http://www.rottentomatoes.com/m/finding_nemo_3d/'
p62
asS'The Lion Kin\n'
p63
(lp64
S'http://www.ask.com/wiki/The_Lion_King'
p65
aS'http://www.imdb.com/title/tt0110357/'
p66
aS'http://www.ask.com/allabout?q=The+Lion+King&qsrc=416'
p67
aS'http://www.broadway.com/shows/the-lion-king/'
p68
aS'http://www.ebay.com/itm/DVD-Disney-Animated-Movie-THE-LION-KING-1-1-2-2-DISC-SET-WIDESCREEN-Rated-G-/270859087978'
p69
aS'http://lionking.wikia.com/wiki/Mufasa'
p70
aS'http://www.amazon.com/dp/6303314015/ref%3Dasc_df_63033140152108493/%3Ftag%3Daskcom05el-20%26creative%3D394997%26creativeASIN%3D6303314015%26linkCode%3Dasn'
p71
aS'http://www.amazon.com/dp/B004WDRT7I/ref%3Dasc_df_B004WDRT7I2108488/%3Ftag%3Daskcom05el-20%26creative%3D394997%26creativeASIN%3DB004WDRT7I%26linkCode%3Dasn'
p72
aS'http://www.ask.com/wiki/The_Lion_King'
p73
aS'http://www.imdb.com/title/tt0110357/'
p74
aS'http://www.ask.com/allabout?q=The+Lion+King&qsrc=416'
p75
aS'http://www.broadway.com/shows/the-lion-king/'
p76
aS'http://www.ebay.com/itm/DVD-Disney-Animated-Movie-THE-LION-KING-1-1-2-2-DISC-SET-WIDESCREEN-Rated-G-/270859087978'
p77
aS'http://lionking.wikia.com/wiki/Mufasa'
p78
aS'http://www.amazon.com/dp/6303314015/ref%3Dasc_df_63033140152108493/%3Ftag%3Daskcom05el-20%26creative%3D394997%26creativeASIN%3D6303314015%26linkCode%3Dasn'
p79
aS'http://www.amazon.com/dp/B004WDRT7I/ref%3Dasc_df_B004WDRT7I2108488/%3Ftag%3Daskcom05el-20%26creative%3D394997%26creativeASIN%3DB004WDRT7I%26linkCode%3Dasn'
p80
asS'Star Wars Episode 1: The Phantom Menace\n'
p81
(lp82
S'http://www.imdb.com/title/tt0120915/'
p83
aS'http://trailers.apple.com/trailers/fox/swepisodeone3d/'
p84
aS'http://www.amazon.com/Star-Wars-Episode-Phantom-Scrapbook/dp/0375800085'
p85
aS'http://www.amazon.com/Star-Wars-Episode-Phantom-Storybook/dp/0375800093'
p86
aS'http://www.starwars.com/explore/the-movies/episode-i/'
p87
aS'http://www.starwars.com/watch/episode-i-3d.html'
p88
aS'http://www.fandango.com/starwars:episodeithephantommenace3d_142510/movieoverview'
p89
aS'http://www.ask.com/wiki/Star_Wars_Episode_I:_The_Phantom_Menace'
p90
aS'http://redlettermedia.com/plinkett/star-wars/star-wars-episode-1-the-phantom-menace/'
p91
aS'http://www.imdb.com/title/tt0120915/'
p92
aS'http://trailers.apple.com/trailers/fox/swepisodeone3d/'
p93
aS'http://www.amazon.com/Star-Wars-Episode-Phantom-Scrapbook/dp/0375800085'
p94
aS'http://www.amazon.com/Star-Wars-Episode-Phantom-Storybook/dp/0375800093'
p95
aS'http://www.starwars.com/explore/the-movies/episode-i/'
p96
aS'http://www.starwars.com/watch/episode-i-3d.html'
p97
aS'http://www.fandango.com/starwars:episodeithephantommenace3d_142510/movieoverview'
p98
aS'http://www.ask.com/wiki/Star_Wars_Episode_I:_The_Phantom_Menace'
p99
aS'http://redlettermedia.com/plinkett/star-wars/star-wars-episode-1-the-phantom-menace/'
p100
asS'Jurassic Park\n'
p101
(lp102
S'http://www.ask.com/wiki/Jurassic_Park_(film)'
p103
aS'http://www.ask.com/wiki/Jurassic_Park_(franchise)'
p104
aS'http://www.ask.com/allabout?q=Jurassic+Park+%28film%29&qsrc=416'
p105
aS'http://www.imdb.com/title/tt0107290/'
p106
aS'http://jp3.jurassicpark.com/'
p107
aS'http://www.jurassicpark.com/maingate_flash.html'
p108
aS'http://www.jurassicpark4movie.net/'
p109
aS'http://www.ask.com/wiki/Jurassic_Park_(film)'
p110
aS'http://www.ask.com/wiki/Jurassic_Park_(franchise)'
p111
aS'http://www.ask.com/allabout?q=Jurassic+Park+%28film%29&qsrc=416'
p112
aS'http://www.imdb.com/title/tt0107290/'
p113
aS'http://jp3.jurassicpark.com/'
p114
aS'http://www.jurassicpark.com/maingate_flash.html'
p115
aS'http://www.jurassicpark4movie.net/'
p116
asS'Inception\n'
p117
(lp118
S'http://inceptionmovie.warnerbros.com/dvd/'
p119
aS'http://www.imdb.com/title/tt1375666/'
p120
aS'http://www.ask.com/wiki/Inception'
p121
aS'http://www.cinemablend.com/new/Inception-Explained-Unraveling-The-Dream-Within-The-Dream-19615.html'
p122
aS'http://www.rottentomatoes.com/m/inception/'
p123
aS'http://www.ask.com/allabout?q=Inception&qsrc=416'
p124
aS'http://www.csmonitor.com/The-Culture/Movies/2010/0715/Inception-movie-review'
p125
aS'http://www.fandango.com/inception_126406/movieoverview'
p126
aS'http://inceptionmovie.warnerbros.com/dvd/'
p127
aS'http://www.imdb.com/title/tt1375666/'
p128
aS'http://www.ask.com/wiki/Inception'
p129
aS'http://www.cinemablend.com/new/Inception-Explained-Unraveling-The-Dream-Within-The-Dream-19615.html'
p130
aS'http://www.rottentomatoes.com/m/inception/'
p131
aS'http://www.ask.com/allabout?q=Inception&qsrc=416'
p132
aS'http://www.csmonitor.com/The-Culture/Movies/2010/0715/Inception-movie-review'
p133
aS'http://www.fandango.com/inception_126406/movieoverview'
p134
asS'Avatar\n'
p135
(lp136
S'http://www.avatarmovie.com/'
p137
aS'http://www.ask.com/wiki/Avatar_(2009_film)'
p138
aS'http://www.imdb.com/title/tt0499549/'
p139
aS'http://www.rottentomatoes.com/m/avatar/'
p140
aS'http://www.ask.com/allabout?q=Avatar+%282009+film%29&qsrc=416'
p141
aS'http://www.comingsoon.net/films.php?id=13245'
p142
aS'http://www.avatarmovie.com/'
p143
aS'http://www.ask.com/wiki/Avatar_(2009_film)'
p144
aS'http://www.imdb.com/title/tt0499549/'
p145
aS'http://www.rottentomatoes.com/m/avatar/'
p146
aS'http://www.ask.com/allabout?q=Avatar+%282009+film%29&qsrc=416'
p147
aS'http://www.comingsoon.net/films.php?id=13245'
p148
asS'The Avengers\n'
p149
(lp150
S'http://marvel.com/avengers_movie/'
p151
aS'http://www.ask.com/wiki/The_Avengers_(2012_film)'
p152
aS'http://www.imdb.com/title/tt0848228/'
p153
aS'http://trailers.apple.com/trailers/marvel/avengers/'
p154
aS'http://www.ask.com/allabout?q=The+Avengers+%282012+film%29&qsrc=416'
p155
aS'http://marvel-movies.wikia.com/wiki/The_Avengers_(film)'
p156
aS'http://marvel.com/avengers_movie/'
p157
aS'http://www.ask.com/wiki/The_Avengers_(2012_film)'
p158
aS'http://www.imdb.com/title/tt0848228/'
p159
aS'http://trailers.apple.com/trailers/marvel/avengers/'
p160
aS'http://www.ask.com/allabout?q=The+Avengers+%282012+film%29&qsrc=416'
p161
aS'http://marvel-movies.wikia.com/wiki/The_Avengers_(film)'
p162
asS'Shrek 2\n'
p163
(lp164
S'http://www.shrek2-themovie.com/'
p165
aS'http://www.imdb.com/title/tt0298148/'
p166
aS'http://www.ask.com/wiki/Shrek_2'
p167
aS'http://www.dailymotion.com/video/xbza98_shrek-2-2004-full-movie-part-1-of-1_shortfilms'
p168
aS'http://www.rottentomatoes.com/m/shrek_2/'
p169
aS'http://www.ask.com/allabout?q=Shrek+2&qsrc=416'
p170
aS'http://www.shrek2-themovie.com/'
p171
aS'http://www.imdb.com/title/tt0298148/'
p172
aS'http://www.ask.com/wiki/Shrek_2'
p173
aS'http://www.dailymotion.com/video/xbza98_shrek-2-2004-full-movie-part-1-of-1_shortfilms'
p174
aS'http://www.rottentomatoes.com/m/shrek_2/'
p175
aS'http://www.ask.com/allabout?q=Shrek+2&qsrc=416'
p176
asS'Titanic\n'
p177
(lp178
S'http://www.titanicmovie.com/'
p179
aS'http://www.ask.com/wiki/Titanic_(1997_film)'
p180
aS'http://www.imdb.com/title/tt0120338/'
p181
aS'http://www.ask.com/allabout?q=Titanic+%281997+film%29&qsrc=416'
p182
aS'http://www.moviemistakes.com/film1299'
p183
aS'http://www.rottentomatoes.com/m/titanic/'
p184
aS'http://www.fanpop.com/external/6896867'
p185
aS'http://www.titanicmovie.com/'
p186
aS'http://www.ask.com/wiki/Titanic_(1997_film)'
p187
aS'http://www.imdb.com/title/tt0120338/'
p188
aS'http://www.ask.com/allabout?q=Titanic+%281997+film%29&qsrc=416'
p189
aS'http://www.moviemistakes.com/film1299'
p190
aS'http://www.rottentomatoes.com/m/titanic/'
p191
aS'http://www.fanpop.com/external/6896867'
p192
asS'Alice in Wonderland\n'
p193
(lp194
S'http://disney.go.com/disneypictures/aliceinwonderland/'
p195
aS'http://www.imdb.com/title/tt1014759/'
p196
aS'http://www.ask.com/wiki/Alice_in_Wonderland_(2010_film)'
p197
aS'http://www.ask.com/wiki/Alice_in_Wonderland_(1985_film)'
p198
aS'http://www.ask.com/wiki/Alice_in_Wonderland_(1951_film)'
p199
aS'http://www.ask.com/allabout?q=Alice+in+Wonderland+%282010+film%29&qsrc=416'
p200
aS'http://www.ask.com/wiki/Alice_in_Wonderland_(1903_film)'
p201
aS'http://disney.go.com/disneypictures/aliceinwonderland/'
p202
aS'http://www.imdb.com/title/tt1014759/'
p203
aS'http://www.ask.com/wiki/Alice_in_Wonderland_(2010_film)'
p204
aS'http://www.ask.com/wiki/Alice_in_Wonderland_(1985_film)'
p205
aS'http://www.ask.com/wiki/Alice_in_Wonderland_(1951_film)'
p206
aS'http://www.ask.com/allabout?q=Alice+in+Wonderland+%282010+film%29&qsrc=416'
p207
aS'http://www.ask.com/wiki/Alice_in_Wonderland_(1903_film)'
p208
asS'Spider-Man 3\n'
p209
(lp210
S'http://www.ask.com/wiki/Spider-Man_3'
p211
aS'http://www.imdb.com/title/tt0413300/'
p212
aS'http://www.ask.com/allabout?q=Spider&qsrc=416'
p213
aS'http://www.sonypictures.com/homevideo/spider-man3/'
p214
aS'http://www.rottentomatoes.com/m/spiderman_3/'
p215
aS'http://www.ask.com/wiki/Spider-Man_3'
p216
aS'http://www.imdb.com/title/tt0413300/'
p217
aS'http://www.ask.com/allabout?q=Spider&qsrc=416'
p218
aS'http://www.sonypictures.com/homevideo/spider-man3/'
p219
aS'http://www.rottentomatoes.com/m/spiderman_3/'
p220
assS'book'
p221
(dp222
S'The Da Vinci Code\n'
p223
(lp224
S'http://www.ask.com/wiki/The_Da_Vinci_Code'
p225
aS'http://www.amazon.com/dp/0385504209/ref%3Dasc_df_03855042092108518/%3Ftag%3Daskcom05el-20%26creative%3D394997%26creativeASIN%3D0385504209%26linkCode%3Dasn'
p226
aS'http://www.amazon.com/dp/0307277674/ref%3Dasc_df_03072776742108517/%3Ftag%3Daskcom05el-20%26creative%3D394997%26creativeASIN%3D0307277674%26linkCode%3Dasn'
p227
aS'http://www.ask.com/allabout?q=The+Da+Vinci+Code&qsrc=416'
p228
aS'http://www.danbrown.com/'
p229
aS'http://www.imdb.com/title/tt0382625/'
p230
aS'http://www.sparknotes.com/lit/davincicode'
p231
aS'http://books.google.com/books/about/The_Da_Vinci_Code.html?id=hbZ0Yfz-NG8C'
p232
aS'http://bestsellers.about.com/od/fictionreviews/gr/davinci_r.htm'
p233
aS'http://www.barnesandnoble.com/w/da-vinci-code-dan-brown/1100022068'
p234
aS'http://www.ask.com/wiki/The_Da_Vinci_Code'
p235
aS'http://www.amazon.com/dp/0385504209/ref%3Dasc_df_03855042092108518/%3Ftag%3Daskcom05el-20%26creative%3D394997%26creativeASIN%3D0385504209%26linkCode%3Dasn'
p236
aS'http://www.amazon.com/dp/0307277674/ref%3Dasc_df_03072776742108517/%3Ftag%3Daskcom05el-20%26creative%3D394997%26creativeASIN%3D0307277674%26linkCode%3Dasn'
p237
aS'http://www.ask.com/allabout?q=The+Da+Vinci+Code&qsrc=416'
p238
aS'http://www.danbrown.com/'
p239
aS'http://www.imdb.com/title/tt0382625/'
p240
aS'http://www.sparknotes.com/lit/davincicode'
p241
aS'http://books.google.com/books/about/The_Da_Vinci_Code.html?id=hbZ0Yfz-NG8C'
p242
aS'http://bestsellers.about.com/od/fictionreviews/gr/davinci_r.htm'
p243
aS'http://www.barnesandnoble.com/w/da-vinci-code-dan-brown/1100022068'
p244
asS'The Little Prince\n'
p245
(lp246
S'http://www.ask.com/wiki/The_Little_Prince'
p247
aS'http://www.amazon.com/dp/0156012197/ref%3Dasc_df_01560121972108517/%3Ftag%3Daskcom05el-20%26creative%3D394997%26creativeASIN%3D0156012197%26linkCode%3Dasn'
p248
aS'http://home.pacific.net.hk/~rebylee/text/prince/contents.html'
p249
aS'http://www.ask.com/allabout?q=The+Little+Prince&qsrc=416'
p250
aS'http://www.sparknotes.com/lit/littleprince/'
p251
aS'http://lostpedia.wikia.com/wiki/The_Little_Prince_(book)'
p252
aS'http://www.barnesandnoble.com/w/little-prince-antoine-de-saint-exupery/1100090265'
p253
aS'http://www.goodreads.com/work/quotes/2180358-le-petit-prince'
p254
aS'http://www.ask.com/wiki/The_Little_Prince'
p255
aS'http://www.amazon.com/dp/0156012197/ref%3Dasc_df_01560121972108517/%3Ftag%3Daskcom05el-20%26creative%3D394997%26creativeASIN%3D0156012197%26linkCode%3Dasn'
p256
aS'http://home.pacific.net.hk/~rebylee/text/prince/contents.html'
p257
aS'http://www.ask.com/allabout?q=The+Little+Prince&qsrc=416'
p258
aS'http://www.sparknotes.com/lit/littleprince/'
p259
aS'http://lostpedia.wikia.com/wiki/The_Little_Prince_(book)'
p260
aS'http://www.barnesandnoble.com/w/little-prince-antoine-de-saint-exupery/1100090265'
p261
aS'http://www.goodreads.com/work/quotes/2180358-le-petit-prince'
p262
asS'Anne of Green Gables\n'
p263
(lp264
S'http://www.ask.com/wiki/Anne_of_Green_Gables'
p265
aS'http://www.amazon.com/dp/0553609416/ref%3Dasc_df_05536094162108482/%3Ftag%3Daskcom05el-20%26creative%3D394997%26creativeASIN%3D0553609416%26linkCode%3Dasn'
p266
aS'http://www.amazon.com/dp/055321313X/ref%3Dasc_df_055321313X2108517/%3Ftag%3Daskcom05el-20%26creative%3D394997%26creativeASIN%3D055321313X%26linkCode%3Dasn'
p267
aS'http://www.ask.com/allabout?q=Anne+of+Green+Gables&qsrc=416'
p268
aS'http://www.goodreads.com/series/40890-anne-of-green-gables'
p269
aS'http://www.pagebypagebooks.com/Lucy_Maud_Montgomery/Anne_Of_Green_Gables/'
p270
aS'http://www.cs.cmu.edu/~rgs/anne-table.html'
p271
aS'http://www.booksshouldbefree.com/book/anne-of-green-gables-by-lucy-maud-montgomery'
p272
aS'http://www.ask.com/wiki/Anne_of_Green_Gables'
p273
aS'http://www.amazon.com/dp/0553609416/ref%3Dasc_df_05536094162108482/%3Ftag%3Daskcom05el-20%26creative%3D394997%26creativeASIN%3D0553609416%26linkCode%3Dasn'
p274
aS'http://www.amazon.com/dp/055321313X/ref%3Dasc_df_055321313X2108517/%3Ftag%3Daskcom05el-20%26creative%3D394997%26creativeASIN%3D055321313X%26linkCode%3Dasn'
p275
aS'http://www.ask.com/allabout?q=Anne+of+Green+Gables&qsrc=416'
p276
aS'http://www.goodreads.com/series/40890-anne-of-green-gables'
p277
aS'http://www.pagebypagebooks.com/Lucy_Maud_Montgomery/Anne_Of_Green_Gables/'
p278
aS'http://www.cs.cmu.edu/~rgs/anne-table.html'
p279
aS'http://www.booksshouldbefree.com/book/anne-of-green-gables-by-lucy-maud-montgomery'
p280
asS'The Eagle has Landed\n'
p281
(lp282
S'http://www.ask.com/wiki/The_Eagle_Has_Landed'
p283
aS'http://www.amazon.com/The-Eagle-Landed-Jack-Higgins/dp/0671727737'
p284
aS'http://www.goodreads.com/book/show/295961.The_Eagle_Has_Landed'
p285
aS'http://www.ask.com/allabout?q=The+Eagle+Has+Landed&qsrc=416'
p286
aS'http://books.google.com/books/about/The_eagle_has_landed.html?id=D7BJisJZ0msC'
p287
aS'http://www.barnesandnoble.com/w/eagle-has-landed-jack-higgins/1100385012'
p288
aS'http://www.imdb.com/title/tt0074452/'
p289
aS'http://www.katemcquillen.com/the-eagle-has-landed-approach/'
p290
aS'http://www.audiobookstand.com/product.asp?Titleid=25351'
p291
aS'http://existentialennui.blogspot.com/2012/07/book-review-eagle-has-landed-by-jack.html'
p292
aS'http://www.ask.com/wiki/The_Eagle_Has_Landed'
p293
aS'http://www.amazon.com/The-Eagle-Landed-Jack-Higgins/dp/0671727737'
p294
aS'http://www.goodreads.com/book/show/295961.The_Eagle_Has_Landed'
p295
aS'http://www.ask.com/allabout?q=The+Eagle+Has+Landed&qsrc=416'
p296
aS'http://books.google.com/books/about/The_eagle_has_landed.html?id=D7BJisJZ0msC'
p297
aS'http://www.barnesandnoble.com/w/eagle-has-landed-jack-higgins/1100385012'
p298
aS'http://www.imdb.com/title/tt0074452/'
p299
aS'http://www.katemcquillen.com/the-eagle-has-landed-approach/'
p300
aS'http://www.audiobookstand.com/product.asp?Titleid=25351'
p301
aS'http://existentialennui.blogspot.com/2012/07/book-review-eagle-has-landed-by-jack.html'
p302
asS'The Catcher in the Rye\n'
p303
(lp304
S'http://www.ask.com/wiki/The_Catcher_in_the_Rye'
p305
aS'http://www.sparknotes.com/lit/catcher/'
p306
aS'http://www.amazon.com/dp/0316769487/ref%3Dasc_df_03167694872108518/%3Ftag%3Daskcom05el-20%26creative%3D394997%26creativeASIN%3D0316769487%26linkCode%3Dasn'
p307
aS'http://www.ask.com/allabout?q=The+Catcher+in+the+Rye&qsrc=416'
p308
aS'http://sleeplessinmumbai.files.wordpress.com/2008/09/jd-salinger-catcher-in-the-rye.pdf'
p309
aS'http://www.bookrags.com/notes/citr/'
p310
aS'http://www.cliffsnotes.com/study_guide/literature/catcher-in-the-rye/at-a-glance.html'
p311
aS'http://www.ask.com/wiki/The_Catcher_in_the_Rye'
p312
aS'http://www.sparknotes.com/lit/catcher/'
p313
aS'http://www.amazon.com/dp/0316769487/ref%3Dasc_df_03167694872108518/%3Ftag%3Daskcom05el-20%26creative%3D394997%26creativeASIN%3D0316769487%26linkCode%3Dasn'
p314
aS'http://www.ask.com/allabout?q=The+Catcher+in+the+Rye&qsrc=416'
p315
aS'http://sleeplessinmumbai.files.wordpress.com/2008/09/jd-salinger-catcher-in-the-rye.pdf'
p316
aS'http://www.bookrags.com/notes/citr/'
p317
aS'http://www.cliffsnotes.com/study_guide/literature/catcher-in-the-rye/at-a-glance.html'
p318
asS'Watership Down\n'
p319
(lp320
S'http://www.ask.com/wiki/Watership_Down'
p321
aS'http://www.amazon.com/dp/0380002930/ref%3Dasc_df_03800029302108517/%3Ftag%3Daskcom05el-20%26creative%3D394997%26creativeASIN%3D0380002930%26linkCode%3Dasn'
p322
aS'http://www.amazon.com/Watership-Down-Richard-Adams/dp/0736617000'
p323
aS'http://www.ask.com/allabout?q=Watership+Down&qsrc=416'
p324
aS'http://books.google.com/books/about/Watership_Down.html?id=ittzoegmRpAC'
p325
aS'http://www.commonsensemedia.org/book-reviews/watership-down'
p326
aS'http://www.sparknotes.com/lit/watership/'
p327
aS'http://www.barnesandnoble.com/w/watership-down-richard-adams/1100247375'
p328
aS'http://www.ask.com/wiki/Watership_Down'
p329
aS'http://www.amazon.com/dp/0380002930/ref%3Dasc_df_03800029302108517/%3Ftag%3Daskcom05el-20%26creative%3D394997%26creativeASIN%3D0380002930%26linkCode%3Dasn'
p330
aS'http://www.amazon.com/Watership-Down-Richard-Adams/dp/0736617000'
p331
aS'http://www.ask.com/allabout?q=Watership+Down&qsrc=416'
p332
aS'http://books.google.com/books/about/Watership_Down.html?id=ittzoegmRpAC'
p333
aS'http://www.commonsensemedia.org/book-reviews/watership-down'
p334
aS'http://www.sparknotes.com/lit/watership/'
p335
aS'http://www.barnesandnoble.com/w/watership-down-richard-adams/1100247375'
p336
asS'The Lord of the Rings\n'
p337
(lp338
S'http://www.ask.com/wiki/The_Lord_of_the_Rings'
p339
aS'http://www.ask.com/wiki/The_Lord_of_the_Rings_(film_series)'
p340
aS'http://www.amazon.com/dp/0618640150/ref%3Dasc_df_06186401502108517/%3Ftag%3Daskcom05el-20%26creative%3D394997%26creativeASIN%3D0618640150%26linkCode%3Dasn'
p341
aS'http://www.ask.com/allabout?q=The+Lord+of+the+Rings&qsrc=416'
p342
aS'http://www.amazon.com/Lord-Rings-Collection-special-editions/lm/1C2Q62FXH6WB3'
p343
aS'http://www.imdb.com/title/tt0120737/'
p344
aS'http://www.lord-of-the-rings.org/books.html'
p345
aS'http://www.ask.com/wiki/The_Lord_of_the_Rings'
p346
aS'http://www.ask.com/wiki/The_Lord_of_the_Rings_(film_series)'
p347
aS'http://www.amazon.com/dp/0618640150/ref%3Dasc_df_06186401502108517/%3Ftag%3Daskcom05el-20%26creative%3D394997%26creativeASIN%3D0618640150%26linkCode%3Dasn'
p348
aS'http://www.ask.com/allabout?q=The+Lord+of+the+Rings&qsrc=416'
p349
aS'http://www.amazon.com/Lord-Rings-Collection-special-editions/lm/1C2Q62FXH6WB3'
p350
aS'http://www.imdb.com/title/tt0120737/'
p351
aS'http://www.lord-of-the-rings.org/books.html'
p352
asS'And Then There Were None\n'
p353
(lp354
S'http://www.ask.com/wiki/And_Then_There_Were_None'
p355
aS'http://www.bookrags.com/notes/none/'
p356
aS'http://www.amazon.com/dp/0312979479/ref%3Dasc_df_03129794792108482/%3Ftag%3Daskcom05el-20%26creative%3D394997%26creativeASIN%3D0312979479%26linkCode%3Dasn'
p357
aS'http://www.ask.com/allabout?q=And+Then+There+Were+None&qsrc=416'
p358
aS'http://books.google.com/books/about/And_Then_There_Were_None.html?id=zr5NBldVA5UC'
p359
aS'http://www.sparknotes.com/lit/andthenthere/'
p360
aS'http://theprettybooks.wordpress.com/2012/05/20/book-review-and-then-there-were-none-by-agatha-christie/'
p361
aS'http://www.barnesandnoble.com/w/and-then-there-were-none-agatha-christie/1100155524'
p362
aS'http://classiclit.about.com/od/andthentherewerenone/a/aa_andthen.htm'
p363
aS'http://joyfullyretired.com/2012/04/23/agatha-christie-and-then-there-were-none/'
p364
aS'http://www.ask.com/wiki/And_Then_There_Were_None'
p365
aS'http://www.bookrags.com/notes/none/'
p366
aS'http://www.amazon.com/dp/0312979479/ref%3Dasc_df_03129794792108482/%3Ftag%3Daskcom05el-20%26creative%3D394997%26creativeASIN%3D0312979479%26linkCode%3Dasn'
p367
aS'http://www.ask.com/allabout?q=And+Then+There+Were+None&qsrc=416'
p368
aS'http://books.google.com/books/about/And_Then_There_Were_None.html?id=zr5NBldVA5UC'
p369
aS'http://www.sparknotes.com/lit/andthenthere/'
p370
aS'http://theprettybooks.wordpress.com/2012/05/20/book-review-and-then-there-were-none-by-agatha-christie/'
p371
aS'http://www.barnesandnoble.com/w/and-then-there-were-none-agatha-christie/1100155524'
p372
aS'http://classiclit.about.com/od/andthentherewerenone/a/aa_andthen.htm'
p373
aS'http://joyfullyretired.com/2012/04/23/agatha-christie-and-then-there-were-none/'
p374
asS'A Tale of Two Cities\n'
p375
(lp376
S'http://www.amazon.com/dp/0486406512/ref%3Dasc_df_04864065122108482/%3Ftag%3Daskcom05el-20%26creative%3D394997%26creativeASIN%3D0486406512%26linkCode%3Dasn'
p377
aS'http://www.ask.com/wiki/A_Tale_of_Two_Cities'
p378
aS'http://etext.virginia.edu/toc/modeng/public/DicTale.html'
p379
aS'http://www.booksshouldbefree.com/book/a-tale-of-two-cities-by-charles-dickens'
p380
aS'http://www.ask.com/allabout?q=A+Tale+of+Two+Cities&qsrc=416'
p381
aS'http://www.bookrags.com/notes/ttc/'
p382
aS'http://www.sparknotes.com/lit/twocities/'
p383
aS'http://www.sparknotes.com/lit/twocities/section5.rhtml'
p384
aS'http://www.amazon.com/dp/0486406512/ref%3Dasc_df_04864065122108482/%3Ftag%3Daskcom05el-20%26creative%3D394997%26creativeASIN%3D0486406512%26linkCode%3Dasn'
p385
aS'http://www.ask.com/wiki/A_Tale_of_Two_Cities'
p386
aS'http://etext.virginia.edu/toc/modeng/public/DicTale.html'
p387
aS'http://www.booksshouldbefree.com/book/a-tale-of-two-cities-by-charles-dickens'
p388
aS'http://www.ask.com/allabout?q=A+Tale+of+Two+Cities&qsrc=416'
p389
aS'http://www.bookrags.com/notes/ttc/'
p390
aS'http://www.sparknotes.com/lit/twocities/'
p391
aS'http://www.sparknotes.com/lit/twocities/section5.rhtml'
p392
asS'The Name of the Rose\n'
p393
(lp394
S'http://www.ask.com/wiki/The_Name_of_the_Rose'
p395
aS'http://www.ask.com/wiki/The_Name_of_the_Rose_(film)'
p396
aS'http://www.amazon.com/dp/0151446474/ref%3Dasc_df_01514464742108518/%3Ftag%3Daskcom05el-20%26creative%3D394997%26creativeASIN%3D0151446474%26linkCode%3Dasn'
p397
aS'http://www.ask.com/allabout?q=The+Name+of+the+Rose&qsrc=416'
p398
aS'http://www.amazon.com/dp/0156001314/ref%3Dasc_df_01560013142108517/%3Ftag%3Daskcom05el-20%26creative%3D394997%26creativeASIN%3D0156001314%26linkCode%3Dasn'
p399
aS'http://www.imdb.com/title/tt0091605/'
p400
aS'http://www.dillgroup.ucsf.edu/~grocklin/Eco,%20Umberto%20-%20The%20Name%20Of%20The%20Rose.pdf'
p401
aS'http://www.barnesandnoble.com/w/name-of-the-rose-umberto-eco/1100623626'
p402
aS'http://www.ask.com/wiki/The_Name_of_the_Rose'
p403
aS'http://www.ask.com/wiki/The_Name_of_the_Rose_(film)'
p404
aS'http://www.amazon.com/dp/0151446474/ref%3Dasc_df_01514464742108518/%3Ftag%3Daskcom05el-20%26creative%3D394997%26creativeASIN%3D0151446474%26linkCode%3Dasn'
p405
aS'http://www.ask.com/allabout?q=The+Name+of+the+Rose&qsrc=416'
p406
aS'http://www.amazon.com/dp/0156001314/ref%3Dasc_df_01560013142108517/%3Ftag%3Daskcom05el-20%26creative%3D394997%26creativeASIN%3D0156001314%26linkCode%3Dasn'
p407
aS'http://www.imdb.com/title/tt0091605/'
p408
aS'http://www.dillgroup.ucsf.edu/~grocklin/Eco,%20Umberto%20-%20The%20Name%20Of%20The%20Rose.pdf'
p409
aS'http://www.barnesandnoble.com/w/name-of-the-rose-umberto-eco/1100623626'
p410
asS'Lolita\n'
p411
(lp412
S'http://www.ask.com/wiki/Lolita'
p413
aS'http://www.amazon.com/dp/0679723161/ref%3Dasc_df_06797231612108517/%3Ftag%3Daskcom05el-20%26creative%3D394997%26creativeASIN%3D0679723161%26linkCode%3Dasn'
p414
aS'http://books.google.com/books/about/Lolita.html?id=utvB0I_0SZsC'
p415
aS'http://www.barnesandnoble.com/w/lolita-vladimir-nabokov/1100068690'
p416
aS'http://www.sparknotes.com/lit/lolita/summary.html'
p417
aS'http://www.sparknotes.com/lit/lolita/'
p418
aS'http://www.ebay.com/sch/i.html?_nkw=japanese+lolita+book'
p419
aS'http://www.ask.com/wiki/Lolita'
p420
aS'http://www.amazon.com/dp/0679723161/ref%3Dasc_df_06797231612108517/%3Ftag%3Daskcom05el-20%26creative%3D394997%26creativeASIN%3D0679723161%26linkCode%3Dasn'
p421
aS'http://books.google.com/books/about/Lolita.html?id=utvB0I_0SZsC'
p422
aS'http://www.barnesandnoble.com/w/lolita-vladimir-nabokov/1100068690'
p423
aS'http://www.sparknotes.com/lit/lolita/summary.html'
p424
aS'http://www.sparknotes.com/lit/lolita/'
p425
aS'http://www.ebay.com/sch/i.html?_nkw=japanese+lolita+book'
p426
asS'The Lion, the Witch and the Wardrobe\n'
p427
(lp428
S'http://www.ask.com/wiki/The_Lion,_the_Witch_and_the_Wardrobe'
p429
aS'http://www.amazon.com/dp/0060765488/ref%3Dasc_df_00607654882108482/%3Ftag%3Daskcom05el-20%26creative%3D394997%26creativeASIN%3D0060765488%26linkCode%3Dasn'
p430
aS'http://narnia.wikia.com/wiki/The_Lion,_the_Witch_and_the_Wardrobe_(book)'
p431
aS'http://www.ask.com/allabout?q=The+Lion%2C+the+Witch+and+the+Wardrobe&qsrc=416'
p432
aS'http://www.commonsensemedia.org/book-reviews/the-lion-the-witch-and-the-wardrobe-the-chronicles-of-narnia-book-1'
p433
aS'http://www.goodreads.com/book/show/100915.The_Lion_the_Witch_and_the_Wardrobe'
p434
aS'http://www.sparknotes.com/lit/lion/'
p435
aS'http://www.readingmatters.co.uk/book.php?id=168'
p436
aS'http://www.scholastic.com/teachers/book/lion-witch-and-wardrobe'
p437
aS'http://www.ask.com/wiki/The_Lion,_the_Witch_and_the_Wardrobe'
p438
aS'http://www.amazon.com/dp/0060765488/ref%3Dasc_df_00607654882108482/%3Ftag%3Daskcom05el-20%26creative%3D394997%26creativeASIN%3D0060765488%26linkCode%3Dasn'
p439
aS'http://narnia.wikia.com/wiki/The_Lion,_the_Witch_and_the_Wardrobe_(book)'
p440
aS'http://www.ask.com/allabout?q=The+Lion%2C+the+Witch+and+the+Wardrobe&qsrc=416'
p441
aS'http://www.commonsensemedia.org/book-reviews/the-lion-the-witch-and-the-wardrobe-the-chronicles-of-narnia-book-1'
p442
aS'http://www.goodreads.com/book/show/100915.The_Lion_the_Witch_and_the_Wardrobe'
p443
aS'http://www.sparknotes.com/lit/lion/'
p444
aS'http://www.readingmatters.co.uk/book.php?id=168'
p445
aS'http://www.scholastic.com/teachers/book/lion-witch-and-wardrobe'
p446
assS'music'
p447
(dp448
S'Elvis Presley\n'
p449
(lp450
S'http://www.last.fm/music/Elvis+Presley'
p451
aS'http://www.elvispresleymusic.com.au/'
p452
aS'http://www.elvis.com/'
p453
aS'http://www.jango.com/music/Elvis+Presley'
p454
aS'http://www.ask.com/wiki/Elvis_Presley'
p455
aS'http://www.elvisthemusic.com/us'
p456
aS'http://music.aol.com/artist/elvis-presley'
p457
aS'http://www.ask.com/allabout?q=Elvis+Presley&qsrc=416'
p458
aS'http://www.last.fm/music/Elvis+Presley'
p459
aS'http://www.elvispresleymusic.com.au/'
p460
aS'http://www.elvis.com/'
p461
aS'http://www.jango.com/music/Elvis+Presley'
p462
aS'http://www.ask.com/wiki/Elvis_Presley'
p463
aS'http://www.elvisthemusic.com/us'
p464
aS'http://music.aol.com/artist/elvis-presley'
p465
aS'http://www.ask.com/allabout?q=Elvis+Presley&qsrc=416'
p466
asS'The Rolling Stones\n'
p467
(lp468
S'http://www.last.fm/music/The+Rolling+Stones'
p469
aS'http://www.songfacts.com/artist-the_rolling_stones.php'
p470
aS'http://www.rollingstones.com/'
p471
aS'http://www.ask.com/wiki/The_Rolling_Stones'
p472
aS'http://www.ask.com/wiki/Category:The_Rolling_Stones_songs'
p473
aS'http://www.ask.com/allabout?q=The+Rolling+Stones&qsrc=416'
p474
aS'http://www.jango.com/music/The+Rolling+Stones'
p475
aS'http://music.yahoo.com/rolling-stones/'
p476
aS'http://www.last.fm/music/The+Rolling+Stones'
p477
aS'http://www.songfacts.com/artist-the_rolling_stones.php'
p478
aS'http://www.rollingstones.com/'
p479
aS'http://www.ask.com/wiki/The_Rolling_Stones'
p480
aS'http://www.ask.com/wiki/Category:The_Rolling_Stones_songs'
p481
aS'http://www.ask.com/allabout?q=The+Rolling+Stones&qsrc=416'
p482
aS'http://www.jango.com/music/The+Rolling+Stones'
p483
aS'http://music.yahoo.com/rolling-stones/'
p484
asS'The Beatles\n'
p485
(lp486
S'http://www.last.fm/music/The+Beatles'
p487
aS'http://www.thebeatles.com/'
p488
aS'http://www.ask.com/wiki/The_Beatles'
p489
aS'http://www.allmusic.com/artist/the-beatles-mn0000754032'
p490
aS'http://www.ask.com/allabout?q=The+Beatles&qsrc=416'
p491
aS'http://www.jango.com/music/The+Beatles'
p492
aS'http://www.music.indiana.edu/som/courses/rock/beatles.html'
p493
aS'http://www.last.fm/music/The+Beatles'
p494
aS'http://www.thebeatles.com/'
p495
aS'http://www.ask.com/wiki/The_Beatles'
p496
aS'http://www.allmusic.com/artist/the-beatles-mn0000754032'
p497
aS'http://www.ask.com/allabout?q=The+Beatles&qsrc=416'
p498
aS'http://www.jango.com/music/The+Beatles'
p499
aS'http://www.music.indiana.edu/som/courses/rock/beatles.html'
p500
asS'Michael Jackson\n'
p501
(lp502
S'http://www.michaeljackson.com/the-artist/timeline/album'
p503
aS'http://www.last.fm/music/Michael+Jackson'
p504
aS'http://music.yahoo.com/michael-jackson/'
p505
aS'http://music.aol.com/artist/michael-jackson'
p506
aS'http://music.aol.com/artist/michael-jackson/videos'
p507
aS'http://www.myspace.com/michaeljackson'
p508
aS'http://www.michaeljackson.com/the-artist/timeline/album'
p509
aS'http://www.last.fm/music/Michael+Jackson'
p510
aS'http://music.yahoo.com/michael-jackson/'
p511
aS'http://music.aol.com/artist/michael-jackson'
p512
aS'http://music.aol.com/artist/michael-jackson/videos'
p513
aS'http://www.myspace.com/michaeljackson'
p514
asS'Led Zeppelin\n'
p515
(lp516
S'http://www.last.fm/music/Led+Zeppelin'
p517
aS'http://www.jango.com/music/Led+Zeppelin'
p518
aS'http://www.ledzeppelin.com/'
p519
aS'http://www.artistdirect.com/artist/led-zeppelin/457490'
p520
aS'http://www.ask.com/wiki/Led_Zeppelin'
p521
aS'http://music.yahoo.com/led-zeppelin/'
p522
aS'http://www.allmusic.com/artist/led-zeppelin-mn0000139026'
p523
aS'http://www.ask.com/allabout?q=Led+Zeppelin&qsrc=416'
p524
aS'http://music.aol.com/artist/led-zeppelin'
p525
aS'http://www.guardian.co.uk/music/ledzeppelin'
p526
aS'http://www.last.fm/music/Led+Zeppelin'
p527
aS'http://www.jango.com/music/Led+Zeppelin'
p528
aS'http://www.ledzeppelin.com/'
p529
aS'http://www.artistdirect.com/artist/led-zeppelin/457490'
p530
aS'http://www.ask.com/wiki/Led_Zeppelin'
p531
aS'http://music.yahoo.com/led-zeppelin/'
p532
aS'http://www.allmusic.com/artist/led-zeppelin-mn0000139026'
p533
aS'http://www.ask.com/allabout?q=Led+Zeppelin&qsrc=416'
p534
aS'http://music.aol.com/artist/led-zeppelin'
p535
aS'http://www.guardian.co.uk/music/ledzeppelin'
p536
asS'Mariah Carey\n'
p537
(lp538
S'http://www.ask.com/wiki/Mariah_Carey'
p539
aS'http://www.last.fm/music/Mariah+Carey'
p540
aS'http://music.yahoo.com/mariah-carey/'
p541
aS'http://www.ask.com/allabout?q=Mariah+Carey&qsrc=416'
p542
aS'http://music.aol.com/artist/mariah-carey/videos'
p543
aS'http://www.youtube.com/playlist?list=PL3AAAAE08576C4B92'
p544
aS'http://mariahcarey.com/music'
p545
aS'http://www.myspace.com/mariahcarey'
p546
aS'http://www.ask.com/wiki/Mariah_Carey'
p547
aS'http://www.last.fm/music/Mariah+Carey'
p548
aS'http://music.yahoo.com/mariah-carey/'
p549
aS'http://www.ask.com/allabout?q=Mariah+Carey&qsrc=416'
p550
aS'http://music.aol.com/artist/mariah-carey/videos'
p551
aS'http://www.youtube.com/playlist?list=PL3AAAAE08576C4B92'
p552
aS'http://mariahcarey.com/music'
p553
aS'http://www.myspace.com/mariahcarey'
p554
asS'Elton John\n'
p555
(lp556
S'http://www.jango.com/music/Elton+John'
p557
aS'http://www.last.fm/music/Elton+John'
p558
aS'http://www.ask.com/wiki/Elton_John'
p559
aS'http://music.yahoo.com/elton-john/'
p560
aS'http://www.ask.com/allabout?q=Elton+John&qsrc=416'
p561
aS'http://www.eltonjohn.com/'
p562
aS'http://music.aol.com/artist/elton-john'
p563
aS'http://www.jango.com/music/Elton+John'
p564
aS'http://www.last.fm/music/Elton+John'
p565
aS'http://www.ask.com/wiki/Elton_John'
p566
aS'http://music.yahoo.com/elton-john/'
p567
aS'http://www.ask.com/allabout?q=Elton+John&qsrc=416'
p568
aS'http://www.eltonjohn.com/'
p569
aS'http://music.aol.com/artist/elton-john'
p570
asS'Pink Floyd\n'
p571
(lp572
S'http://www.last.fm/music/Pink+Floyd'
p573
aS'http://www.ask.com/wiki/Pink_Floyd'
p574
aS'http://www.allmusic.com/artist/pink-floyd-mn0000346336'
p575
aS'http://www.pink-floyd-music.com/'
p576
aS'http://www.ask.com/allabout?q=Pink+Floyd&qsrc=416'
p577
aS'http://www.jango.com/music/Pink+Floyd'
p578
aS'http://www.progarchives.com/artist.asp?id=364'
p579
aS'http://www.vafest.org/2012/performances/world-folk-rock/the-music-of-pink-floyd'
p580
aS'http://www.last.fm/music/Pink+Floyd'
p581
aS'http://www.ask.com/wiki/Pink_Floyd'
p582
aS'http://www.allmusic.com/artist/pink-floyd-mn0000346336'
p583
aS'http://www.pink-floyd-music.com/'
p584
aS'http://www.ask.com/allabout?q=Pink+Floyd&qsrc=416'
p585
aS'http://www.jango.com/music/Pink+Floyd'
p586
aS'http://www.progarchives.com/artist.asp?id=364'
p587
aS'http://www.vafest.org/2012/performances/world-folk-rock/the-music-of-pink-floyd'
p588
asS'Queen \n'
p589
(lp590
S'http://www.ask.com/wiki/Queen_(band)'
p591
aS'http://www.last.fm/music/Queen'
p592
aS'http://www.jango.com/music/Queen'
p593
aS'http://www.ask.com/allabout?q=Queen+%28band%29&qsrc=416'
p594
aS'http://www.queenzone.com/'
p595
aS'http://www.youtube.com/playlist?list=PLDAF918CE40E0F56B'
p596
aS'http://www.amazon.com/dp/B000000OBP/ref%3Dasc_df_B000000OBP2108544/%3Ftag%3Daskcom05el-20%26creative%3D394997%26creativeASIN%3DB000000OBP%26linkCode%3Dasn'
p597
aS'http://music.yahoo.com/queen/'
p598
aS'http://www.allmusic.com/artist/queen-mn0000858827'
p599
aS'http://www.huffingtonpost.com/2012/08/12/queen-jessie-j-closing-ceremony-music-olympics_n_1770672.html'
p600
aS'http://www.ask.com/wiki/Queen_(band)'
p601
aS'http://www.last.fm/music/Queen'
p602
aS'http://www.jango.com/music/Queen'
p603
aS'http://www.ask.com/allabout?q=Queen+%28band%29&qsrc=416'
p604
aS'http://www.queenzone.com/'
p605
aS'http://www.youtube.com/playlist?list=PLDAF918CE40E0F56B'
p606
aS'http://www.amazon.com/dp/B000000OBP/ref%3Dasc_df_B000000OBP2108544/%3Ftag%3Daskcom05el-20%26creative%3D394997%26creativeASIN%3DB000000OBP%26linkCode%3Dasn'
p607
aS'http://music.yahoo.com/queen/'
p608
aS'http://www.allmusic.com/artist/queen-mn0000858827'
p609
aS'http://www.huffingtonpost.com/2012/08/12/queen-jessie-j-closing-ceremony-music-olympics_n_1770672.html'
p610
asS'ABBA\n'
p611
(lp612
S'http://www.ask.com/wiki/ABBA'
p613
aS'http://www.last.fm/music/ABBA'
p614
aS'http://www.jango.com/music/ABBA'
p615
aS'http://www.ask.com/allabout?q=ABBA&qsrc=416'
p616
aS'http://www.abbathemusic.com/'
p617
aS'http://www.allmusic.com/artist/abba-mn0000922728'
p618
aS'http://www.ask.com/wiki/ABBA'
p619
aS'http://www.last.fm/music/ABBA'
p620
aS'http://www.jango.com/music/ABBA'
p621
aS'http://www.ask.com/allabout?q=ABBA&qsrc=416'
p622
aS'http://www.abbathemusic.com/'
p623
aS'http://www.allmusic.com/artist/abba-mn0000922728'
p624
asS'Madonna\n'
p625
(lp626
S'http://www.ask.com/wiki/Music_(Madonna_album)'
p627
aS'http://www.amazon.com/dp/B00004X01U/ref%3Dasc_df_B00004X01U2108544/%3Ftag%3Daskcom05el-20%26creative%3D394997%26creativeASIN%3DB00004X01U%26linkCode%3Dasn'
p628
aS'http://www.ask.com/wiki/Music_(Madonna_song)'
p629
aS'http://www.ask.com/allabout?q=Music+%28Madonna+album%29&qsrc=416'
p630
aS'http://music.aol.com/artist/madonna'
p631
aS'http://music.aol.com/artist/madonna/videos'
p632
aS'http://www.madonna.com/'
p633
aS'http://www.ask.com/wiki/Music_(Madonna_album)'
p634
aS'http://www.amazon.com/dp/B00004X01U/ref%3Dasc_df_B00004X01U2108544/%3Ftag%3Daskcom05el-20%26creative%3D394997%26creativeASIN%3DB00004X01U%26linkCode%3Dasn'
p635
aS'http://www.ask.com/wiki/Music_(Madonna_song)'
p636
aS'http://www.ask.com/allabout?q=Music+%28Madonna+album%29&qsrc=416'
p637
aS'http://music.aol.com/artist/madonna'
p638
aS'http://music.aol.com/artist/madonna/videos'
p639
aS'http://www.madonna.com/'
p640
asS'Celine Dion\n'
p641
(lp642
S'http://www.last.fm/music/C%C3%A9line+Dion'
p643
aS'http://www.youtube.com/artist/celine_dion'
p644
aS'http://www.celinedion.com/ca/music/original-recordings'
p645
aS'http://www.ask.com/wiki/Celine_Dion'
p646
aS'http://www.poemhunter.com/lyrics/celine-dion/'
p647
aS'http://www.elyrics.net/song/c/celine-dion-lyrics.html'
p648
aS'http://www.ask.com/allabout?q=Celine+Dion&qsrc=416'
p649
aS'http://music.aol.com/artist/celine-dion'
p650
aS'http://www.last.fm/music/C%C3%A9line+Dion'
p651
aS'http://www.youtube.com/artist/celine_dion'
p652
aS'http://www.celinedion.com/ca/music/original-recordings'
p653
aS'http://www.ask.com/wiki/Celine_Dion'
p654
aS'http://www.poemhunter.com/lyrics/celine-dion/'
p655
aS'http://www.elyrics.net/song/c/celine-dion-lyrics.html'
p656
aS'http://www.ask.com/allabout?q=Celine+Dion&qsrc=416'
p657
aS'http://music.aol.com/artist/celine-dion'
p658
asS'Bee Gees\n'
p659
(lp660
S'http://www.last.fm/music/Bee+Gees'
p661
aS'http://www.ask.com/wiki/Bee_Gees'
p662
aS'http://www.jango.com/music/Bee+Gees'
p663
aS'http://www.youtube.com/artist/bee_gees'
p664
aS'http://www.ask.com/allabout?q=Bee+Gees&qsrc=416'
p665
aS'http://music.yahoo.com/bee-gees/'
p666
aS'http://www.huffingtonpost.com/2012/05/20/bee-gees-songs-robin-gibb-dead_n_1531739.html'
p667
aS'http://www.myspace.com/beegees'
p668
aS'http://www.amazon.com/s?ie=UTF8&page=1&rh=n%3A5174%2Ck%3ABee%20Gees'
p669
aS'http://www.last.fm/music/Bee+Gees'
p670
aS'http://www.ask.com/wiki/Bee_Gees'
p671
aS'http://www.jango.com/music/Bee+Gees'
p672
aS'http://www.youtube.com/artist/bee_gees'
p673
aS'http://www.ask.com/allabout?q=Bee+Gees&qsrc=416'
p674
aS'http://music.yahoo.com/bee-gees/'
p675
aS'http://www.huffingtonpost.com/2012/05/20/bee-gees-songs-robin-gibb-dead_n_1531739.html'
p676
aS'http://www.myspace.com/beegees'
p677
aS'http://www.amazon.com/s?ie=UTF8&page=1&rh=n%3A5174%2Ck%3ABee%20Gees'
p678
ass.